target datalayout = "e-m:e-p270:32:32-p271:32:32-p272:64:64-i64:64-i128:128-f80:128-n8:16:32:64-S128"
target triple = "x86_64-pc-linux-gnu"

%struct.conversation = type { ptr, ptr, ptr, i32, i32, i32, ptr, ptr, i32, ptr }

; Function Attrs: null_pointer_is_valid sspstrong uwtable
define internal void @x25_hash_add_proto_start(i16 noundef zeroext %0, i32 noundef %1, ptr noundef %2) #0 {
  %4 = alloca i16, align 2
  %5 = alloca i32, align 4
  %6 = alloca ptr, align 8
  %7 = alloca ptr, align 8
  store i16 %0, ptr %4, align 2
  store i32 %1, ptr %5, align 4
  store ptr %2, ptr %6, align 8
  call void @llvm.lifetime.start.p0(i64 8, ptr %7) #6
  %8 = load i32, ptr %5, align 4
  %9 = load i16, ptr %4, align 2
  %10 = zext i16 %9 to i32
  %11 = call ptr @find_conversation_by_id(i32 noundef %8, i32 noundef 21, i32 noundef %10)
  store ptr %11, ptr %7, align 8
  %12 = load ptr, ptr %7, align 8
  %13 = icmp ne ptr %12, null
  br i1 %13, label %14, label %19

14:                                               ; preds = %3
  %15 = load i32, ptr %5, align 4
  %16 = sub i32 %15, 1
  %17 = load ptr, ptr %7, align 8
  %18 = getelementptr inbounds nuw %struct.conversation, ptr %17, i32 0, i32 5
  store i32 %16, ptr %18, align 8
  br label %19

19:                                               ; preds = %14, %3
  %20 = load i32, ptr %5, align 4
  %21 = load i16, ptr %4, align 2
  %22 = zext i16 %21 to i32
  %23 = call ptr @conversation_new_by_id(i32 noundef %20, i32 noundef 21, i32 noundef %22)
  store ptr %23, ptr %7, align 8
  %24 = load ptr, ptr %7, align 8
  %25 = load ptr, ptr %6, align 8
  call void @conversation_set_dissector(ptr noundef %24, ptr noundef %25)
  call void @llvm.lifetime.end.p0(i64 8, ptr %7) #6
  ret void
}