; Function Attrs: null_pointer_is_valid sspstrong uwtable
define internal fastcc void @x25_hash_add_proto_start(i16 noundef zeroext range(i16 0, 4096) %0, i32 noundef %1, ptr noundef %2) unnamed_addr #0 {
  %4 = zext nneg i16 %0 to i32
  %5 = tail call ptr @find_conversation_by_id(i32 noundef %1, i32 noundef 21, i32 noundef %4)
  %.not = icmp eq ptr %5, null
  br i1 %.not, label %9, label %6

6:                                                ; preds = %3
  %7 = add i32 %1, -1
  %8 = getelementptr inbounds nuw i8, ptr %5, i64 32
  store i32 %7, ptr %8, align 8
  br label %9

9:                                                ; preds = %6, %3
  %10 = tail call ptr @conversation_new_by_id(i32 noundef %1, i32 noundef 21, i32 noundef %4)
  tail call void @conversation_set_dissector(ptr noundef %10, ptr noundef %2)
  ret void
}